#include <math.h>
#include <stdio.h>
#include <stdlib.h>
#include <string.h>

int main()
{
	int m,i,n[1000];
	scanf("%d",&m);
	for(i=0;i<m;i++)
	{
		scanf("%d",&(n[i]));
	}
	int sz[1000];
	double xsz[1000];
	sz[0]=1;
	sz[1]=2;
	xsz[0]=(sz[1])/(sz[0]);
	int k;
	double sum[1000];
	for(i=0;i<m;i++)
	{
		sum[i]=xsz[0];
		for(k=1;k<(n[i]);k++)
		{
			sz[k+1]=sz[k]+sz[k-1];
		    xsz[k]=(sz[k+1])*1.0/(sz[k]);
			sum[i]+=xsz[k];
		}
		printf("%.3lf\n",sum[i]);
	}
	return 0;
}