; ModuleID = '29/38.c'
source_filename = "29/38.c"
target datalayout = "e-m:e-p270:32:32-p271:32:32-p272:64:64-i64:64-f80:128-n8:16:32:64-S128"
target triple = "x86_64-pc-linux-gnu"

@.str = private unnamed_addr constant [3 x i8] c"%d\00", align 1
@.str.1 = private unnamed_addr constant [7 x i8] c"%.3lf\0A\00", align 1

; Function Attrs: noinline nounwind uwtable
define dso_local i32 @main() #0 {
  %1 = alloca i32, align 4
  %2 = alloca i32, align 4
  %3 = alloca i32, align 4
  %4 = alloca [1000 x i32], align 16
  %5 = alloca [1000 x i32], align 16
  %6 = alloca [1000 x double], align 16
  %7 = alloca i32, align 4
  %8 = alloca [1000 x double], align 16
  store i32 0, i32* %1, align 4
  %9 = call i32 (i8*, ...) @__isoc99_scanf(i8* getelementptr inbounds ([3 x i8], [3 x i8]* @.str, i64 0, i64 0), i32* %2)
  store i32 0, i32* %3, align 4
  br label %10

10:                                               ; preds = %19, %0
  %11 = load i32, i32* %3, align 4
  %12 = load i32, i32* %2, align 4
  %13 = icmp slt i32 %11, %12
  br i1 %13, label %14, label %22

14:                                               ; preds = %10
  %15 = load i32, i32* %3, align 4
  %16 = sext i32 %15 to i64
  %17 = getelementptr inbounds [1000 x i32], [1000 x i32]* %4, i64 0, i64 %16
  %18 = call i32 (i8*, ...) @__isoc99_scanf(i8* getelementptr inbounds ([3 x i8], [3 x i8]* @.str, i64 0, i64 0), i32* %17)
  br label %19

19:                                               ; preds = %14
  %20 = load i32, i32* %3, align 4
  %21 = add nsw i32 %20, 1
  store i32 %21, i32* %3, align 4
  br label %10

22:                                               ; preds = %10
  %23 = getelementptr inbounds [1000 x i32], [1000 x i32]* %5, i64 0, i64 0
  store i32 1, i32* %23, align 16
  %24 = getelementptr inbounds [1000 x i32], [1000 x i32]* %5, i64 0, i64 1
  store i32 2, i32* %24, align 4
  %25 = getelementptr inbounds [1000 x i32], [1000 x i32]* %5, i64 0, i64 1
  %26 = load i32, i32* %25, align 4
  %27 = getelementptr inbounds [1000 x i32], [1000 x i32]* %5, i64 0, i64 0
  %28 = load i32, i32* %27, align 16
  %29 = sdiv i32 %26, %28
  %30 = sitofp i32 %29 to double
  %31 = getelementptr inbounds [1000 x double], [1000 x double]* %6, i64 0, i64 0
  store double %30, double* %31, align 16
  store i32 0, i32* %3, align 4
  br label %32

32:                                               ; preds = %98, %22
  %33 = load i32, i32* %3, align 4
  %34 = load i32, i32* %2, align 4
  %35 = icmp slt i32 %33, %34
  br i1 %35, label %36, label %101

36:                                               ; preds = %32
  %37 = getelementptr inbounds [1000 x double], [1000 x double]* %6, i64 0, i64 0
  %38 = load double, double* %37, align 16
  %39 = load i32, i32* %3, align 4
  %40 = sext i32 %39 to i64
  %41 = getelementptr inbounds [1000 x double], [1000 x double]* %8, i64 0, i64 %40
  store double %38, double* %41, align 8
  store i32 1, i32* %7, align 4
  br label %42

42:                                               ; preds = %89, %36
  %43 = load i32, i32* %7, align 4
  %44 = load i32, i32* %3, align 4
  %45 = sext i32 %44 to i64
  %46 = getelementptr inbounds [1000 x i32], [1000 x i32]* %4, i64 0, i64 %45
  %47 = load i32, i32* %46, align 4
  %48 = icmp slt i32 %43, %47
  br i1 %48, label %49, label %92

49:                                               ; preds = %42
  %50 = load i32, i32* %7, align 4
  %51 = sext i32 %50 to i64
  %52 = getelementptr inbounds [1000 x i32], [1000 x i32]* %5, i64 0, i64 %51
  %53 = load i32, i32* %52, align 4
  %54 = load i32, i32* %7, align 4
  %55 = sub nsw i32 %54, 1
  %56 = sext i32 %55 to i64
  %57 = getelementptr inbounds [1000 x i32], [1000 x i32]* %5, i64 0, i64 %56
  %58 = load i32, i32* %57, align 4
  %59 = add nsw i32 %53, %58
  %60 = load i32, i32* %7, align 4
  %61 = add nsw i32 %60, 1
  %62 = sext i32 %61 to i64
  %63 = getelementptr inbounds [1000 x i32], [1000 x i32]* %5, i64 0, i64 %62
  store i32 %59, i32* %63, align 4
  %64 = load i32, i32* %7, align 4
  %65 = add nsw i32 %64, 1
  %66 = sext i32 %65 to i64
  %67 = getelementptr inbounds [1000 x i32], [1000 x i32]* %5, i64 0, i64 %66
  %68 = load i32, i32* %67, align 4
  %69 = sitofp i32 %68 to double
  %70 = fmul double %69, 1.000000e+00
  %71 = load i32, i32* %7, align 4
  %72 = sext i32 %71 to i64
  %73 = getelementptr inbounds [1000 x i32], [1000 x i32]* %5, i64 0, i64 %72
  %74 = load i32, i32* %73, align 4
  %75 = sitofp i32 %74 to double
  %76 = fdiv double %70, %75
  %77 = load i32, i32* %7, align 4
  %78 = sext i32 %77 to i64
  %79 = getelementptr inbounds [1000 x double], [1000 x double]* %6, i64 0, i64 %78
  store double %76, double* %79, align 8
  %80 = load i32, i32* %7, align 4
  %81 = sext i32 %80 to i64
  %82 = getelementptr inbounds [1000 x double], [1000 x double]* %6, i64 0, i64 %81
  %83 = load double, double* %82, align 8
  %84 = load i32, i32* %3, align 4
  %85 = sext i32 %84 to i64
  %86 = getelementptr inbounds [1000 x double], [1000 x double]* %8, i64 0, i64 %85
  %87 = load double, double* %86, align 8
  %88 = fadd double %87, %83
  store double %88, double* %86, align 8
  br label %89

89:                                               ; preds = %49
  %90 = load i32, i32* %7, align 4
  %91 = add nsw i32 %90, 1
  store i32 %91, i32* %7, align 4
  br label %42

92:                                               ; preds = %42
  %93 = load i32, i32* %3, align 4
  %94 = sext i32 %93 to i64
  %95 = getelementptr inbounds [1000 x double], [1000 x double]* %8, i64 0, i64 %94
  %96 = load double, double* %95, align 8
  %97 = call i32 (i8*, ...) @printf(i8* getelementptr inbounds ([7 x i8], [7 x i8]* @.str.1, i64 0, i64 0), double %96)
  br label %98

98:                                               ; preds = %92
  %99 = load i32, i32* %3, align 4
  %100 = add nsw i32 %99, 1
  store i32 %100, i32* %3, align 4
  br label %32

101:                                              ; preds = %32
  ret i32 0
}

declare dso_local i32 @__isoc99_scanf(i8*, ...) #1

declare dso_local i32 @printf(i8*, ...) #1


!llvm.module.flags = !{!0}
!llvm.ident = !{!1}

!0 = !{i32 1, !"wchar_size", i32 4}
!1 = !{!"clang version 10.0.0-4ubuntu1 "}
